target datalayout = "e-m:e-p270:32:32-p271:32:32-p272:64:64-i64:64-i128:128-f80:128-n8:16:32:64-S128"
target triple = "x86_64-unknown-linux-gnu"

%struct.UText = type { i32, i32, i32, i32, i64, i32, i32, i64, i32, i32, ptr, ptr, ptr, ptr, ptr, ptr, ptr, ptr, i64, i32, i32, i64, i32, i32 }
%struct.UTextFuncs = type { i32, i32, i32, i32, ptr, ptr, ptr, ptr, ptr, ptr, ptr, ptr, ptr, ptr, ptr, ptr }

; Function Attrs: mustprogress uwtable
define i64 @utext_nativeLength_75(ptr noundef %ut) #0 {
entry:
  %ut.addr = alloca ptr, align 8
  store ptr %ut, ptr %ut.addr, align 8
  %0 = load ptr, ptr %ut.addr, align 8
  %pFuncs = getelementptr inbounds %struct.UText, ptr %0, i32 0, i32 11
  %1 = load ptr, ptr %pFuncs, align 8
  %nativeLength = getelementptr inbounds %struct.UTextFuncs, ptr %1, i32 0, i32 5
  %2 = load ptr, ptr %nativeLength, align 8
  %3 = load ptr, ptr %ut.addr, align 8
  %call = call noundef i64 %2(ptr noundef %3)
  ret i64 %call
}