; Function Attrs: mustprogress uwtable
define noundef i64 @utext_nativeLength_75(ptr noundef %ut) local_unnamed_addr #0 {
entry:
  %pFuncs = getelementptr inbounds i8, ptr %ut, i64 56
  %0 = load ptr, ptr %pFuncs, align 8
  %nativeLength = getelementptr inbounds i8, ptr %0, i64 24
  %1 = load ptr, ptr %nativeLength, align 8
  %call = tail call noundef i64 %1(ptr noundef %ut)
  ret i64 %call
}